; Function Attrs: nounwind uwtable
define hidden range(i32 -5, 1) i32 @sctpHandleSocketErrorWithMessage(ptr noundef %0, i32 noundef %1, ptr noundef %2) local_unnamed_addr #1 {
  switch i32 %1, label %7 [
    i32 115, label %13
    i32 71, label %8
    i32 111, label %4
    i32 110, label %4
    i32 107, label %4
    i32 113, label %5
    i32 98, label %6
    i32 99, label %6
  ]

4:                                                ; preds = %3, %3, %3
  br label %8

5:                                                ; preds = %3
  br label %8

6:                                                ; preds = %3, %3
  br label %8

7:                                                ; preds = %3
  br label %8

8:                                                ; preds = %3, %7, %6, %5, %4
  %.0 = phi ptr [ @.str.4, %7 ], [ @.str.3, %6 ], [ @.str.2, %5 ], [ @.str.1, %4 ], [ @.str, %3 ]
  %9 = tail call ptr @__errno_location() #9
  store i32 %1, ptr %9, align 4
  %10 = icmp eq ptr %2, null
  br i1 %10, label %11, label %12

11:                                               ; preds = %8
  tail call void @JNU_ThrowByNameWithLastError(ptr noundef %0, ptr noundef nonnull %.0, ptr noundef nonnull @.str.5) #10
  br label %13

12:                                               ; preds = %8
  tail call void @JNU_ThrowByNameWithMessageAndLastError(ptr noundef %0, ptr noundef nonnull %.0, ptr noundef nonnull %2) #10
  br label %13

13:                                               ; preds = %11, %12, %3
  %.08 = phi i32 [ 0, %3 ], [ -5, %12 ], [ -5, %11 ]
  ret i32 %.08
}